; Function Attrs: mustprogress nounwind uwtable
define hidden noundef zeroext i1 @_ZN2os12guard_memoryEPcm(ptr noundef %0, i64 noundef %1) local_unnamed_addr #0 align 2 {
  %3 = ptrtoint ptr %0 to i64
  %4 = load i64, ptr @_ZN6OSInfo13_vm_page_sizeE, align 8
  %5 = sub i64 0, %4
  %6 = and i64 %5, %3
  %7 = inttoptr i64 %6 to ptr
  %8 = add i64 %3, -1
  %9 = add i64 %8, %1
  %10 = add i64 %9, %4
  %11 = sub i64 %10, %6
  %12 = and i64 %11, %5
  %13 = load ptr, ptr @g_assert_poison, align 8
  %.not.i = icmp eq ptr %13, %0
  br i1 %.not.i, label %_ZL14linux_mprotectPcmi.exit, label %14

14:                                               ; preds = %2
  %15 = getelementptr inbounds i8, ptr %7, i64 %12
  %16 = ptrtoint ptr %15 to i64
  tail call void (ptr, ptr, ...) @_ZN6Events14log_memprotectEP6ThreadPKcz(ptr noundef null, ptr noundef nonnull @.str.338, i64 noundef %6, i64 noundef %16, i32 noundef 0)
  br label %_ZL14linux_mprotectPcmi.exit

_ZL14linux_mprotectPcmi.exit:                     ; preds = %2, %14
  %17 = tail call i32 @mprotect(ptr noundef %7, i64 noundef %12, i32 noundef 0) #26
  %18 = icmp eq i32 %17, 0
  ret i1 %18
}